target datalayout = "e-m:e-p270:32:32-p271:32:32-p272:64:64-i64:64-i128:128-f80:128-n8:16:32:64-S128"
target triple = "x86_64-pc-linux-gnu"

%struct.strbuf = type { i64, i64, ptr }
%struct.dir_struct = type { i32, i32, i32, ptr, ptr, ptr, ptr, %struct.dir_struct_internal }
%struct.dir_struct_internal = type { i32, i32, [3 x %struct.exclude_list_group], ptr, ptr, %struct.strbuf, %struct.oid_stat, %struct.oid_stat, i32, i32, i32 }
%struct.exclude_list_group = type { i32, i32, ptr }
%struct.oid_stat = type { %struct.stat_data, %struct.object_id, i32 }
%struct.stat_data = type { %struct.cache_time, %struct.cache_time, i32, i32, i32, i32, i32 }
%struct.cache_time = type { i32, i32 }
%struct.object_id = type { [32 x i8], i32 }
%struct.string_list = type { ptr, i64, i64, i8, ptr }
%struct.repository = type { ptr, ptr, ptr, ptr, ptr, %struct.strmap, %struct.strmap, %struct.repo_path_cache, ptr, ptr, ptr, ptr, %struct.repo_settings, ptr, ptr, ptr, ptr, ptr, ptr, i32, i32, i32, ptr, ptr, i32, i32, i8 }
%struct.strmap = type { %struct.hashmap, ptr, i8 }
%struct.hashmap = type { ptr, ptr, ptr, i32, i32, i32, i32, i8 }
%struct.repo_path_cache = type { ptr, ptr, ptr, ptr, ptr, ptr, ptr }
%struct.repo_settings = type { i32, i32, i32, i32, i32, i32, i32, i32, i32, i32, i32, i32, ptr, i32, i32, i32, i32, i32, i32, i32, i64, i64, i64 }
%struct.string_list_item = type { ptr, ptr }

@the_repository = external global ptr, align 8
@.str.19 = private unnamed_addr constant [1 x i8] zeroinitializer, align 1
@clean_use_color = internal global i32 -1, align 4
@git_gettext_enabled = external global i32, align 4
@del_list = internal global { ptr, i64, i64, i8, [7 x i8], ptr } { ptr null, i64 0, i64 0, i8 1, [7 x i8] zeroinitializer, ptr null }, align 8
@__const.filter_by_patterns_cmd.confirm = private unnamed_addr constant %struct.strbuf { i64 0, i64 0, ptr @strbuf_slopbuf }, align 8
@.str.46 = private unnamed_addr constant [25 x i8] c"Input ignore patterns>> \00", align 1
@.str.47 = private unnamed_addr constant [15 x i8] c"manual exclude\00", align 1
@.str.48 = private unnamed_addr constant [42 x i8] c"WARNING: Cannot find items matched by: %s\00", align 1
@stdout = external global ptr, align 8
@.str.54 = private unnamed_addr constant [3 x i8] c"%s\00", align 1

; Function Attrs: nounwind uwtable
define internal ptr @clean_get_color(i32 noundef %0) #0 {
  %2 = alloca ptr, align 8
  %3 = alloca i32, align 4
  store i32 %0, ptr %3, align 4, !tbaa !15
  %4 = load i32, ptr @clean_use_color, align 4, !tbaa !15
  %5 = call i32 @want_color_fd(i32 noundef 1, i32 noundef %4)
  %6 = icmp ne i32 %5, 0
  br i1 %6, label %7, label %12

7:                                                ; preds = %1
  %8 = load i32, ptr %3, align 4, !tbaa !15
  %9 = zext i32 %8 to i64
  %10 = getelementptr inbounds nuw [6 x [75 x i8]], ptr @clean_colors, i64 0, i64 %9
  %11 = getelementptr inbounds [75 x i8], ptr %10, i64 0, i64 0
  store ptr %11, ptr %2, align 8
  br label %13

12:                                               ; preds = %1
  store ptr @.str.19, ptr %2, align 8
  br label %13

13:                                               ; preds = %12, %7
  %14 = load ptr, ptr %2, align 8
  ret ptr %14
}

; Function Attrs: inlinehint nounwind uwtable
define internal ptr @strbuf_split_max(ptr noundef %0, i32 noundef %1, i32 noundef %2) #2 {
  %4 = alloca ptr, align 8
  %5 = alloca i32, align 4
  %6 = alloca i32, align 4
  store ptr %0, ptr %4, align 8, !tbaa !111
  store i32 %1, ptr %5, align 4, !tbaa !15
  store i32 %2, ptr %6, align 4, !tbaa !15
  %7 = load ptr, ptr %4, align 8, !tbaa !111
  %8 = getelementptr inbounds nuw %struct.strbuf, ptr %7, i32 0, i32 2
  %9 = load ptr, ptr %8, align 8, !tbaa !83
  %10 = load ptr, ptr %4, align 8, !tbaa !111
  %11 = getelementptr inbounds nuw %struct.strbuf, ptr %10, i32 0, i32 1
  %12 = load i64, ptr %11, align 8, !tbaa !114
  %13 = load i32, ptr %5, align 4, !tbaa !15
  %14 = load i32, ptr %6, align 4, !tbaa !15
  %15 = call ptr @strbuf_split_buf(ptr noundef %9, i64 noundef %12, i32 noundef %13, i32 noundef %14)
  ret ptr %15
}

; Function Attrs: inlinehint nounwind uwtable
define available_externally i32 @putchar(i32 noundef %0) #2 {
  %2 = alloca i32, align 4
  store i32 %0, ptr %2, align 4, !tbaa !15
  %3 = load i32, ptr %2, align 4, !tbaa !15
  %4 = load ptr, ptr @stdout, align 8, !tbaa !143
  %5 = call i32 @putc(i32 noundef %3, ptr noundef %4)
  ret i32 %5
}

; Function Attrs: inlinehint nounwind uwtable
define internal ptr @_(ptr noundef %0) #2 {
  %2 = alloca ptr, align 8
  %3 = alloca ptr, align 8
  store ptr %0, ptr %3, align 8, !tbaa !9
  %4 = load ptr, ptr %3, align 8, !tbaa !9
  %5 = load i8, ptr %4, align 1, !tbaa !90
  %6 = icmp ne i8 %5, 0
  br i1 %6, label %8, label %7

7:                                                ; preds = %1
  store ptr @.str.19, ptr %2, align 8
  br label %16

8:                                                ; preds = %1
  %9 = load i32, ptr @git_gettext_enabled, align 4, !tbaa !15
  %10 = icmp ne i32 %9, 0
  br i1 %10, label %13, label %11

11:                                               ; preds = %8
  %12 = load ptr, ptr %3, align 8, !tbaa !9
  store ptr %12, ptr %2, align 8
  br label %16

13:                                               ; preds = %8
  %14 = load ptr, ptr %3, align 8, !tbaa !9
  %15 = call ptr @dcgettext(ptr noundef null, ptr noundef %14, i32 noundef 5) #11
  store ptr %15, ptr %2, align 8
  br label %16

16:                                               ; preds = %13, %11, %7
  %17 = load ptr, ptr %2, align 8
  ret ptr %17
}

; Function Attrs: nounwind uwtable
define internal void @clean_print_color(i32 noundef %0) #0 {
  %2 = alloca i32, align 4
  store i32 %0, ptr %2, align 4, !tbaa !15
  %3 = load i32, ptr %2, align 4, !tbaa !15
  %4 = call ptr @clean_get_color(i32 noundef %3)
  %5 = call i32 (ptr, ...) @printf(ptr noundef @.str.54, ptr noundef %4)
  ret void
}

; Function Attrs: nounwind uwtable
define internal i32 @filter_by_patterns_cmd() #0 {
  %1 = alloca %struct.dir_struct, align 8
  %2 = alloca %struct.strbuf, align 8
  %3 = alloca ptr, align 8
  %4 = alloca ptr, align 8
  %5 = alloca ptr, align 8
  %6 = alloca i32, align 4
  %7 = alloca i32, align 4
  %8 = alloca i32, align 4
  call void @llvm.lifetime.start.p0(i64 312, ptr %1) #11
  call void @llvm.memset.p0.i64(ptr align 8 %1, i8 0, i64 312, i1 false)
  call void @llvm.lifetime.start.p0(i64 24, ptr %2) #11
  call void @llvm.memcpy.p0.p0.i64(ptr align 8 %2, ptr align 8 @__const.filter_by_patterns_cmd.confirm, i64 24, i1 false)
  call void @llvm.lifetime.start.p0(i64 8, ptr %3) #11
  call void @llvm.lifetime.start.p0(i64 8, ptr %4) #11
  call void @llvm.lifetime.start.p0(i64 8, ptr %5) #11
  call void @llvm.lifetime.start.p0(i64 4, ptr %6) #11
  store i32 -1, ptr %6, align 4, !tbaa !15
  call void @llvm.lifetime.start.p0(i64 4, ptr %7) #11
  br label %9

9:                                                ; preds = %110, %0
  %10 = load i64, ptr getelementptr inbounds nuw (%struct.string_list, ptr @del_list, i32 0, i32 1), align 8, !tbaa !66
  %11 = icmp ne i64 %10, 0
  br i1 %11, label %13, label %12

12:                                               ; preds = %9
  br label %112

13:                                               ; preds = %9
  %14 = load i32, ptr %6, align 4, !tbaa !15
  %15 = icmp ne i32 %14, 0
  br i1 %15, label %16, label %17

16:                                               ; preds = %13
  call void @pretty_print_dels()
  br label %17

17:                                               ; preds = %16, %13
  call void @clean_print_color(i32 noundef 2)
  %18 = call ptr @_(ptr noundef @.str.46)
  %19 = call i32 (ptr, ...) @printf(ptr noundef %18)
  call void @clean_print_color(i32 noundef 0)
  %20 = call i32 @git_read_line_interactively(ptr noundef %2)
  %21 = icmp eq i32 %20, -1
  br i1 %21, label %22, label %24

22:                                               ; preds = %17
  %23 = call i32 @putchar(i32 noundef 10)
  br label %24

24:                                               ; preds = %22, %17
  %25 = getelementptr inbounds nuw %struct.strbuf, ptr %2, i32 0, i32 1
  %26 = load i64, ptr %25, align 8, !tbaa !114
  %27 = icmp ne i64 %26, 0
  br i1 %27, label %29, label %28

28:                                               ; preds = %24
  br label %112

29:                                               ; preds = %24
  %30 = call ptr @add_pattern_list(ptr noundef %1, i32 noundef 0, ptr noundef @.str.47)
  store ptr %30, ptr %5, align 8, !tbaa !64
  %31 = call ptr @strbuf_split_max(ptr noundef %2, i32 noundef 32, i32 noundef 0)
  store ptr %31, ptr %3, align 8, !tbaa !126
  store i32 0, ptr %7, align 4, !tbaa !15
  br label %32

32:                                               ; preds = %66, %29
  %33 = load ptr, ptr %3, align 8, !tbaa !126
  %34 = load i32, ptr %7, align 4, !tbaa !15
  %35 = sext i32 %34 to i64
  %36 = getelementptr inbounds ptr, ptr %33, i64 %35
  %37 = load ptr, ptr %36, align 8, !tbaa !111
  %38 = icmp ne ptr %37, null
  br i1 %38, label %39, label %69

39:                                               ; preds = %32
  %40 = load ptr, ptr %3, align 8, !tbaa !126
  %41 = load i32, ptr %7, align 4, !tbaa !15
  %42 = sext i32 %41 to i64
  %43 = getelementptr inbounds ptr, ptr %40, i64 %42
  %44 = load ptr, ptr %43, align 8, !tbaa !111
  call void @strbuf_trim(ptr noundef %44)
  %45 = load ptr, ptr %3, align 8, !tbaa !126
  %46 = load i32, ptr %7, align 4, !tbaa !15
  %47 = sext i32 %46 to i64
  %48 = getelementptr inbounds ptr, ptr %45, i64 %47
  %49 = load ptr, ptr %48, align 8, !tbaa !111
  %50 = getelementptr inbounds nuw %struct.strbuf, ptr %49, i32 0, i32 1
  %51 = load i64, ptr %50, align 8, !tbaa !114
  %52 = icmp ne i64 %51, 0
  br i1 %52, label %54, label %53

53:                                               ; preds = %39
  br label %66

54:                                               ; preds = %39
  %55 = load ptr, ptr %3, align 8, !tbaa !126
  %56 = load i32, ptr %7, align 4, !tbaa !15
  %57 = sext i32 %56 to i64
  %58 = getelementptr inbounds ptr, ptr %55, i64 %57
  %59 = load ptr, ptr %58, align 8, !tbaa !111
  %60 = getelementptr inbounds nuw %struct.strbuf, ptr %59, i32 0, i32 2
  %61 = load ptr, ptr %60, align 8, !tbaa !83
  %62 = load ptr, ptr %5, align 8, !tbaa !64
  %63 = load i32, ptr %7, align 4, !tbaa !15
  %64 = add nsw i32 %63, 1
  %65 = sub nsw i32 0, %64
  call void @add_pattern(ptr noundef %61, ptr noundef @.str.19, i32 noundef 0, ptr noundef %62, i32 noundef %65)
  br label %66

66:                                               ; preds = %54, %53
  %67 = load i32, ptr %7, align 4, !tbaa !15
  %68 = add nsw i32 %67, 1
  store i32 %68, ptr %7, align 4, !tbaa !15
  br label %32, !llvm.loop !128

69:                                               ; preds = %32
  store i32 0, ptr %6, align 4, !tbaa !15
  %70 = load ptr, ptr @del_list, align 8, !tbaa !69
  store ptr %70, ptr %4, align 8, !tbaa !82
  br label %71

71:                                               ; preds = %98, %69
  %72 = load ptr, ptr %4, align 8, !tbaa !82
  %73 = icmp ne ptr %72, null
  br i1 %73, label %74, label %80

74:                                               ; preds = %71
  %75 = load ptr, ptr %4, align 8, !tbaa !82
  %76 = load ptr, ptr @del_list, align 8, !tbaa !69
  %77 = load i64, ptr getelementptr inbounds nuw (%struct.string_list, ptr @del_list, i32 0, i32 1), align 8, !tbaa !66
  %78 = getelementptr inbounds nuw %struct.string_list_item, ptr %76, i64 %77
  %79 = icmp ult ptr %75, %78
  br label %80

80:                                               ; preds = %74, %71
  %81 = phi i1 [ false, %71 ], [ %79, %74 ]
  br i1 %81, label %82, label %101

82:                                               ; preds = %80
  call void @llvm.lifetime.start.p0(i64 4, ptr %8) #11
  store i32 0, ptr %8, align 4, !tbaa !15
  %83 = load ptr, ptr @the_repository, align 8, !tbaa !19
  %84 = getelementptr inbounds nuw %struct.repository, ptr %83, i32 0, i32 15
  %85 = load ptr, ptr %84, align 8, !tbaa !73
  %86 = load ptr, ptr %4, align 8, !tbaa !82
  %87 = getelementptr inbounds nuw %struct.string_list_item, ptr %86, i32 0, i32 0
  %88 = load ptr, ptr %87, align 8, !tbaa !70
  %89 = call i32 @is_excluded(ptr noundef %1, ptr noundef %85, ptr noundef %88, ptr noundef %8)
  %90 = icmp ne i32 %89, 0
  br i1 %90, label %91, label %97

91:                                               ; preds = %82
  %92 = load ptr, ptr %4, align 8, !tbaa !82
  %93 = getelementptr inbounds nuw %struct.string_list_item, ptr %92, i32 0, i32 0
  %94 = load ptr, ptr %93, align 8, !tbaa !70
  store i8 0, ptr %94, align 1, !tbaa !90
  %95 = load i32, ptr %6, align 4, !tbaa !15
  %96 = add nsw i32 %95, 1
  store i32 %96, ptr %6, align 4, !tbaa !15
  br label %97

97:                                               ; preds = %91, %82
  call void @llvm.lifetime.end.p0(i64 4, ptr %8) #11
  br label %98

98:                                               ; preds = %97
  %99 = load ptr, ptr %4, align 8, !tbaa !82
  %100 = getelementptr inbounds nuw %struct.string_list_item, ptr %99, i32 1
  store ptr %100, ptr %4, align 8, !tbaa !82
  br label %71, !llvm.loop !129

101:                                              ; preds = %80
  %102 = load i32, ptr %6, align 4, !tbaa !15
  %103 = icmp ne i32 %102, 0
  br i1 %103, label %104, label %105

104:                                              ; preds = %101
  call void @string_list_remove_empty_items(ptr noundef @del_list, i32 noundef 0)
  br label %110

105:                                              ; preds = %101
  call void @clean_print_color(i32 noundef 5)
  %106 = call ptr @_(ptr noundef @.str.48)
  %107 = getelementptr inbounds nuw %struct.strbuf, ptr %2, i32 0, i32 2
  %108 = load ptr, ptr %107, align 8, !tbaa !83
  %109 = call i32 (ptr, ...) @printf_ln(ptr noundef %106, ptr noundef %108)
  call void @clean_print_color(i32 noundef 0)
  br label %110

110:                                              ; preds = %105, %104
  %111 = load ptr, ptr %3, align 8, !tbaa !126
  call void @strbuf_list_free(ptr noundef %111)
  call void @dir_clear(ptr noundef %1)
  br label %9

112:                                              ; preds = %28, %12
  call void @strbuf_release(ptr noundef %2)
  call void @llvm.lifetime.end.p0(i64 4, ptr %7) #11
  call void @llvm.lifetime.end.p0(i64 4, ptr %6) #11
  call void @llvm.lifetime.end.p0(i64 8, ptr %5) #11
  call void @llvm.lifetime.end.p0(i64 8, ptr %4) #11
  call void @llvm.lifetime.end.p0(i64 8, ptr %3) #11
  call void @llvm.lifetime.end.p0(i64 24, ptr %2) #11
  call void @llvm.lifetime.end.p0(i64 312, ptr %1) #11
  ret i32 0
}