; Function Attrs: nounwind uwtable
define internal noundef i32 @filter_by_patterns_cmd() #0 {
  %1 = alloca %struct.dir_struct, align 8
  %2 = alloca %struct.strbuf, align 8
  %3 = alloca i32, align 4
  call void @llvm.lifetime.start.p0(i64 312, ptr nonnull %1) #16
  call void @llvm.memset.p0.i64(ptr noundef nonnull align 8 dereferenceable(312) %1, i8 0, i64 312, i1 false)
  call void @llvm.lifetime.start.p0(i64 24, ptr nonnull %2) #16
  call void @llvm.memcpy.p0.p0.i64(ptr noundef nonnull align 8 dereferenceable(24) %2, ptr noundef nonnull align 8 dereferenceable(24) @__const.remove_dirs.real_ocwd, i64 24, i1 false)
  %4 = load i64, ptr getelementptr inbounds nuw (i8, ptr @del_list, i64 8), align 8, !tbaa !56
  %.not48 = icmp eq i64 %4, 0
  br i1 %.not48, label %._crit_edge52, label %.lr.ph51

.lr.ph51:                                         ; preds = %0
  %5 = getelementptr inbounds nuw i8, ptr %2, i64 8
  %6 = getelementptr inbounds nuw i8, ptr %2, i64 16
  br label %7

7:                                                ; preds = %.lr.ph51, %70
  %.01949 = phi i32 [ -1, %.lr.ph51 ], [ %.1.lcssa57, %70 ]
  %.not22 = icmp eq i32 %.01949, 0
  br i1 %.not22, label %9, label %8

8:                                                ; preds = %7
  call fastcc void @pretty_print_dels()
  br label %9

9:                                                ; preds = %8, %7
  %10 = load i32, ptr @clean_use_color, align 4, !tbaa !11
  %11 = call i32 @want_color_fd(i32 noundef 1, i32 noundef %10) #16
  %.not.i.i = icmp eq i32 %11, 0
  %.0.i.i = select i1 %.not.i.i, ptr @.str.19, ptr getelementptr inbounds nuw (i8, ptr @clean_colors, i64 150)
  %12 = call i32 (ptr, ...) @printf(ptr noundef nonnull dereferenceable(1) @.str.54, ptr noundef nonnull %.0.i.i)
  %13 = load i32, ptr @git_gettext_enabled, align 4, !tbaa !11
  %.not4.i = icmp eq i32 %13, 0
  br i1 %.not4.i, label %_.exit, label %14

14:                                               ; preds = %9
  %15 = call ptr @dcgettext(ptr noundef null, ptr noundef nonnull @.str.46, i32 noundef 5) #16
  br label %_.exit

_.exit:                                           ; preds = %9, %14
  %.0.i = phi ptr [ %15, %14 ], [ @.str.46, %9 ]
  %16 = call i32 (ptr, ...) @printf(ptr noundef nonnull dereferenceable(1) %.0.i)
  %17 = load i32, ptr @clean_use_color, align 4, !tbaa !11
  %18 = call i32 @want_color_fd(i32 noundef 1, i32 noundef %17) #16
  %.not.i.i30 = icmp eq i32 %18, 0
  %.0.i.i31 = select i1 %.not.i.i30, ptr @.str.19, ptr @clean_colors
  %19 = call i32 (ptr, ...) @printf(ptr noundef nonnull dereferenceable(1) @.str.54, ptr noundef nonnull %.0.i.i31)
  %20 = call i32 @git_read_line_interactively(ptr noundef nonnull %2) #16
  %21 = icmp eq i32 %20, -1
  br i1 %21, label %22, label %25

22:                                               ; preds = %_.exit
  %23 = load ptr, ptr @stdout, align 8, !tbaa !99
  %24 = call i32 @putc(i32 noundef 10, ptr noundef %23)
  br label %25

25:                                               ; preds = %22, %_.exit
  %26 = load i64, ptr %5, align 8, !tbaa !88
  %.not23 = icmp eq i64 %26, 0
  br i1 %.not23, label %._crit_edge52, label %27

27:                                               ; preds = %25
  %28 = call ptr @add_pattern_list(ptr noundef nonnull %1, i32 noundef 0, ptr noundef nonnull @.str.47) #16
  %.val = load i64, ptr %5, align 8, !tbaa !88
  %.val29 = load ptr, ptr %6, align 8, !tbaa !89
  %29 = call ptr @strbuf_split_buf(ptr noundef %.val29, i64 noundef %.val, i32 noundef 32, i32 noundef 0) #16
  %30 = load ptr, ptr %29, align 8, !tbaa !101
  %.not2439 = icmp eq ptr %30, null
  br i1 %.not2439, label %._crit_edge, label %.lr.ph

.lr.ph:                                           ; preds = %27, %41
  %indvars.iv = phi i64 [ %indvars.iv.next, %41 ], [ 0, %27 ]
  %31 = phi ptr [ %43, %41 ], [ %30, %27 ]
  %32 = getelementptr inbounds nuw ptr, ptr %29, i64 %indvars.iv
  call void @strbuf_trim(ptr noundef nonnull %31) #16
  %33 = load ptr, ptr %32, align 8, !tbaa !101
  %34 = getelementptr inbounds nuw i8, ptr %33, i64 8
  %35 = load i64, ptr %34, align 8, !tbaa !88
  %.not28 = icmp eq i64 %35, 0
  br i1 %.not28, label %41, label %36

36:                                               ; preds = %.lr.ph
  %37 = getelementptr inbounds nuw i8, ptr %33, i64 16
  %38 = load ptr, ptr %37, align 8, !tbaa !89
  %39 = trunc nuw nsw i64 %indvars.iv to i32
  %40 = xor i32 %39, -1
  call void @add_pattern(ptr noundef %38, ptr noundef nonnull @.str.19, i32 noundef 0, ptr noundef %28, i32 noundef %40) #16
  br label %41

41:                                               ; preds = %.lr.ph, %36
  %indvars.iv.next = add nuw nsw i64 %indvars.iv, 1
  %42 = getelementptr inbounds nuw ptr, ptr %29, i64 %indvars.iv.next
  %43 = load ptr, ptr %42, align 8, !tbaa !101
  %.not24 = icmp eq ptr %43, null
  br i1 %.not24, label %._crit_edge, label %.lr.ph, !llvm.loop !103

._crit_edge:                                      ; preds = %41, %27
  %44 = load ptr, ptr @del_list, align 8, !tbaa !59
  %.not2541 = icmp eq ptr %44, null
  br i1 %.not2541, label %.critedge.thread, label %.lr.ph45.preheader

.lr.ph45.preheader:                               ; preds = %._crit_edge
  %45 = load i64, ptr getelementptr inbounds nuw (i8, ptr @del_list, i64 8), align 8, !tbaa !56
  %.not62 = icmp eq i64 %45, 0
  br i1 %.not62, label %.critedge, label %.lr.ph61

.lr.ph61:                                         ; preds = %.lr.ph45.preheader, %.lr.ph45
  %.0204260 = phi ptr [ %54, %.lr.ph45 ], [ %44, %.lr.ph45.preheader ]
  %.14359 = phi i32 [ %.2, %.lr.ph45 ], [ 0, %.lr.ph45.preheader ]
  call void @llvm.lifetime.start.p0(i64 4, ptr nonnull %3) #16
  store i32 0, ptr %3, align 4, !tbaa !11
  %46 = load ptr, ptr @the_repository, align 8, !tbaa !24
  %47 = getelementptr inbounds nuw i8, ptr %46, i64 384
  %48 = load ptr, ptr %47, align 8, !tbaa !63
  %49 = load ptr, ptr %.0204260, align 8, !tbaa !60
  %50 = call i32 @is_excluded(ptr noundef nonnull %1, ptr noundef %48, ptr noundef %49, ptr noundef nonnull %3) #16
  %.not27 = icmp eq i32 %50, 0
  br i1 %.not27, label %.lr.ph45, label %51

51:                                               ; preds = %.lr.ph61
  %52 = load ptr, ptr %.0204260, align 8, !tbaa !60
  store i8 0, ptr %52, align 1, !tbaa !90
  %53 = add nsw i32 %.14359, 1
  br label %.lr.ph45

.lr.ph45:                                         ; preds = %51, %.lr.ph61
  %.2 = phi i32 [ %53, %51 ], [ %.14359, %.lr.ph61 ]
  call void @llvm.lifetime.end.p0(i64 4, ptr nonnull %3) #16
  %54 = getelementptr inbounds nuw i8, ptr %.0204260, i64 16
  %.pre = load ptr, ptr @del_list, align 8, !tbaa !59
  %55 = load i64, ptr getelementptr inbounds nuw (i8, ptr @del_list, i64 8), align 8, !tbaa !56
  %56 = getelementptr inbounds nuw %struct.string_list_item, ptr %.pre, i64 %55
  %57 = icmp ult ptr %54, %56
  br i1 %57, label %.lr.ph61, label %.critedge, !llvm.loop !104

.critedge:                                        ; preds = %.lr.ph45, %.lr.ph45.preheader
  %.143.lcssa = phi i32 [ 0, %.lr.ph45.preheader ], [ %.2, %.lr.ph45 ]
  %.not26 = icmp eq i32 %.143.lcssa, 0
  br i1 %.not26, label %.critedge.thread, label %58

58:                                               ; preds = %.critedge
  call void @string_list_remove_empty_items(ptr noundef nonnull @del_list, i32 noundef 0) #16
  br label %70

.critedge.thread:                                 ; preds = %._crit_edge, %.critedge
  %59 = load i32, ptr @clean_use_color, align 4, !tbaa !11
  %60 = call i32 @want_color_fd(i32 noundef 1, i32 noundef %59) #16
  %.not.i.i32 = icmp eq i32 %60, 0
  %.0.i.i33 = select i1 %.not.i.i32, ptr @.str.19, ptr getelementptr inbounds nuw (i8, ptr @clean_colors, i64 375)
  %61 = call i32 (ptr, ...) @printf(ptr noundef nonnull dereferenceable(1) @.str.54, ptr noundef nonnull %.0.i.i33)
  %62 = load i32, ptr @git_gettext_enabled, align 4, !tbaa !11
  %.not4.i34 = icmp eq i32 %62, 0
  br i1 %.not4.i34, label %_.exit36, label %63

63:                                               ; preds = %.critedge.thread
  %64 = call ptr @dcgettext(ptr noundef null, ptr noundef nonnull @.str.48, i32 noundef 5) #16
  br label %_.exit36

_.exit36:                                         ; preds = %.critedge.thread, %63
  %.0.i35 = phi ptr [ %64, %63 ], [ @.str.48, %.critedge.thread ]
  %65 = load ptr, ptr %6, align 8, !tbaa !89
  %66 = call i32 (ptr, ...) @printf_ln(ptr noundef %.0.i35, ptr noundef %65) #16
  %67 = load i32, ptr @clean_use_color, align 4, !tbaa !11
  %68 = call i32 @want_color_fd(i32 noundef 1, i32 noundef %67) #16
  %.not.i.i37 = icmp eq i32 %68, 0
  %.0.i.i38 = select i1 %.not.i.i37, ptr @.str.19, ptr @clean_colors
  %69 = call i32 (ptr, ...) @printf(ptr noundef nonnull dereferenceable(1) @.str.54, ptr noundef nonnull %.0.i.i38)
  br label %70

70:                                               ; preds = %_.exit36, %58
  %.1.lcssa57 = phi i32 [ 0, %_.exit36 ], [ %.143.lcssa, %58 ]
  call void @strbuf_list_free(ptr noundef nonnull %29) #16
  call void @dir_clear(ptr noundef nonnull %1) #16
  %71 = load i64, ptr getelementptr inbounds nuw (i8, ptr @del_list, i64 8), align 8, !tbaa !56
  %.not = icmp eq i64 %71, 0
  br i1 %.not, label %._crit_edge52, label %7

._crit_edge52:                                    ; preds = %70, %25, %0
  call void @strbuf_release(ptr noundef nonnull %2) #16
  call void @llvm.lifetime.end.p0(i64 24, ptr nonnull %2) #16
  call void @llvm.lifetime.end.p0(i64 312, ptr nonnull %1) #16
  ret i32 0
}